; ModuleID = '62/2966.c'
source_filename = "62/2966.c"
target datalayout = "e-m:e-p270:32:32-p271:32:32-p272:64:64-i64:64-f80:128-n8:16:32:64-S128"
target triple = "x86_64-pc-linux-gnu"

@.str = private unnamed_addr constant [4 x i8] c"%s\0A\00", align 1

; Function Attrs: noinline nounwind uwtable
define dso_local i32 @main() #0 {
  %1 = alloca i32, align 4
  %2 = alloca i32, align 4
  %3 = alloca i32, align 4
  %4 = alloca i32, align 4
  %5 = alloca [1 x [100 x i8]], align 16
  store i32 0, i32* %1, align 4
  %6 = getelementptr inbounds [1 x [100 x i8]], [1 x [100 x i8]]* %5, i64 0, i64 0
  %7 = getelementptr inbounds [100 x i8], [100 x i8]* %6, i64 0, i64 0
  %8 = call i32 (i8*, ...) bitcast (i32 (...)* @gets to i32 (i8*, ...)*)(i8* %7)
  %9 = getelementptr inbounds [1 x [100 x i8]], [1 x [100 x i8]]* %5, i64 0, i64 0
  %10 = getelementptr inbounds [100 x i8], [100 x i8]* %9, i64 0, i64 0
  %11 = call i64 @strlen(i8* %10) #3
  %12 = trunc i64 %11 to i32
  store i32 %12, i32* %3, align 4
  store i32 0, i32* %2, align 4
  br label %13

13:                                               ; preds = %58, %0
  %14 = load i32, i32* %2, align 4
  %15 = load i32, i32* %3, align 4
  %16 = icmp slt i32 %14, %15
  br i1 %16, label %17, label %61

17:                                               ; preds = %13
  %18 = getelementptr inbounds [1 x [100 x i8]], [1 x [100 x i8]]* %5, i64 0, i64 0
  %19 = load i32, i32* %2, align 4
  %20 = sext i32 %19 to i64
  %21 = getelementptr inbounds [100 x i8], [100 x i8]* %18, i64 0, i64 %20
  %22 = load i8, i8* %21, align 1
  %23 = sext i8 %22 to i32
  %24 = icmp eq i32 %23, 32
  br i1 %24, label %25, label %57

25:                                               ; preds = %17
  %26 = getelementptr inbounds [1 x [100 x i8]], [1 x [100 x i8]]* %5, i64 0, i64 0
  %27 = load i32, i32* %2, align 4
  %28 = add nsw i32 %27, 1
  %29 = sext i32 %28 to i64
  %30 = getelementptr inbounds [100 x i8], [100 x i8]* %26, i64 0, i64 %29
  %31 = load i8, i8* %30, align 1
  %32 = sext i8 %31 to i32
  %33 = icmp eq i32 %32, 32
  br i1 %33, label %34, label %57

34:                                               ; preds = %25
  %35 = load i32, i32* %2, align 4
  store i32 %35, i32* %4, align 4
  br label %36

36:                                               ; preds = %53, %34
  %37 = load i32, i32* %4, align 4
  %38 = load i32, i32* %3, align 4
  %39 = icmp slt i32 %37, %38
  br i1 %39, label %40, label %56

40:                                               ; preds = %36
  %41 = getelementptr inbounds [1 x [100 x i8]], [1 x [100 x i8]]* %5, i64 0, i64 0
  %42 = load i32, i32* %4, align 4
  %43 = add nsw i32 %42, 1
  %44 = sext i32 %43 to i64
  %45 = getelementptr inbounds [100 x i8], [100 x i8]* %41, i64 0, i64 %44
  %46 = load i8, i8* %45, align 1
  %47 = getelementptr inbounds [1 x [100 x i8]], [1 x [100 x i8]]* %5, i64 0, i64 0
  %48 = load i32, i32* %4, align 4
  %49 = sext i32 %48 to i64
  %50 = getelementptr inbounds [100 x i8], [100 x i8]* %47, i64 0, i64 %49
  store i8 %46, i8* %50, align 1
  %51 = load i32, i32* %2, align 4
  %52 = add nsw i32 %51, -1
  store i32 %52, i32* %2, align 4
  br label %53

53:                                               ; preds = %40
  %54 = load i32, i32* %4, align 4
  %55 = add nsw i32 %54, 1
  store i32 %55, i32* %4, align 4
  br label %36

56:                                               ; preds = %36
  br label %57

57:                                               ; preds = %56, %25, %17
  br label %58

58:                                               ; preds = %57
  %59 = load i32, i32* %2, align 4
  %60 = add nsw i32 %59, 1
  store i32 %60, i32* %2, align 4
  br label %13

61:                                               ; preds = %13
  %62 = getelementptr inbounds [1 x [100 x i8]], [1 x [100 x i8]]* %5, i64 0, i64 0
  %63 = getelementptr inbounds [100 x i8], [100 x i8]* %62, i64 0, i64 0
  %64 = call i32 (i8*, ...) @printf(i8* getelementptr inbounds ([4 x i8], [4 x i8]* @.str, i64 0, i64 0), i8* %63)
  ret i32 0
}

declare dso_local i32 @gets(...) #1

; Function Attrs: nounwind readonly
declare dso_local i64 @strlen(i8*) #2

declare dso_local i32 @printf(i8*, ...) #1


!llvm.module.flags = !{!0}
!llvm.ident = !{!1}

!0 = !{i32 1, !"wchar_size", i32 4}
!1 = !{!"clang version 10.0.0-4ubuntu1 "}
